target datalayout = "e-m:e-p270:32:32-p271:32:32-p272:64:64-i64:64-i128:128-f80:128-n8:16:32:64-S128"
target triple = "x86_64-pc-linux-gnu"

%struct.__storeu_si128 = type { <2 x i64> }
%struct.__loadu_si128 = type { <2 x i64> }

@ZSTD_overlapCopy8.dec32table = internal constant [8 x i32] [i32 0, i32 1, i32 2, i32 1, i32 4, i32 4, i32 4, i32 4], align 16
@ZSTD_overlapCopy8.dec64table = internal constant [8 x i32] [i32 8, i32 8, i32 8, i32 7, i32 8, i32 9, i32 10, i32 11], align 16

; Function Attrs: alwaysinline nounwind uwtable
define internal void @_mm_storeu_si128(ptr noundef %0, <2 x i64> noundef %1) #12 {
  %3 = alloca ptr, align 8
  %4 = alloca <2 x i64>, align 16
  store ptr %0, ptr %3, align 8, !tbaa !3
  store <2 x i64> %1, ptr %4, align 16, !tbaa !15
  %5 = load <2 x i64>, ptr %4, align 16, !tbaa !15
  %6 = load ptr, ptr %3, align 8, !tbaa !3
  %7 = getelementptr inbounds nuw %struct.__storeu_si128, ptr %6, i32 0, i32 0
  store <2 x i64> %5, ptr %7, align 1, !tbaa !15
  ret void
}

; Function Attrs: alwaysinline nounwind uwtable
define internal <2 x i64> @_mm_loadu_si128(ptr noundef %0) #12 {
  %2 = alloca ptr, align 8
  store ptr %0, ptr %2, align 8, !tbaa !3
  %3 = load ptr, ptr %2, align 8, !tbaa !3
  %4 = getelementptr inbounds nuw %struct.__loadu_si128, ptr %3, i32 0, i32 0
  %5 = load <2 x i64>, ptr %4, align 1, !tbaa !15
  ret <2 x i64> %5
}

; Function Attrs: nounwind uwtable
define internal void @ZSTD_copy16(ptr noundef %0, ptr noundef %1) #11 {
  %3 = alloca ptr, align 8
  %4 = alloca ptr, align 8
  store ptr %0, ptr %3, align 8, !tbaa !3
  store ptr %1, ptr %4, align 8, !tbaa !3
  %5 = load ptr, ptr %3, align 8, !tbaa !3
  %6 = load ptr, ptr %4, align 8, !tbaa !3
  %7 = call <2 x i64> @_mm_loadu_si128(ptr noundef %6)
  call void @_mm_storeu_si128(ptr noundef %5, <2 x i64> noundef %7)
  ret void
}

; Function Attrs: nounwind uwtable
define internal void @ZSTD_copy8(ptr noundef %0, ptr noundef %1) #0 {
  %3 = alloca ptr, align 8
  %4 = alloca ptr, align 8
  store ptr %0, ptr %3, align 8, !tbaa !3
  store ptr %1, ptr %4, align 8, !tbaa !3
  %5 = load ptr, ptr %3, align 8, !tbaa !3
  %6 = load ptr, ptr %4, align 8, !tbaa !3
  call void @llvm.memcpy.p0.p0.i64(ptr align 1 %5, ptr align 1 %6, i64 8, i1 false)
  ret void
}

; Function Attrs: nounwind uwtable
define internal void @ZSTD_copy4(ptr noundef %0, ptr noundef %1) #0 {
  %3 = alloca ptr, align 8
  %4 = alloca ptr, align 8
  store ptr %0, ptr %3, align 8, !tbaa !3
  store ptr %1, ptr %4, align 8, !tbaa !3
  %5 = load ptr, ptr %3, align 8, !tbaa !3
  %6 = load ptr, ptr %4, align 8, !tbaa !3
  call void @llvm.memcpy.p0.p0.i64(ptr align 1 %5, ptr align 1 %6, i64 4, i1 false)
  ret void
}

; Function Attrs: alwaysinline nounwind uwtable
define internal void @ZSTD_wildcopy(ptr noundef %0, ptr noundef %1, i64 noundef %2, i32 noundef %3) #9 {
  %5 = alloca ptr, align 8
  %6 = alloca ptr, align 8
  %7 = alloca i64, align 8
  %8 = alloca i32, align 4
  %9 = alloca i64, align 8
  %10 = alloca ptr, align 8
  %11 = alloca ptr, align 8
  %12 = alloca ptr, align 8
  %13 = alloca i32, align 4
  store ptr %0, ptr %5, align 8, !tbaa !3
  store ptr %1, ptr %6, align 8, !tbaa !3
  store i64 %2, ptr %7, align 8, !tbaa !7
  store i32 %3, ptr %8, align 4, !tbaa !9
  call void @llvm.lifetime.start.p0(i64 8, ptr %9) #14
  %14 = load ptr, ptr %5, align 8, !tbaa !3
  %15 = load ptr, ptr %6, align 8, !tbaa !3
  %16 = ptrtoint ptr %14 to i64
  %17 = ptrtoint ptr %15 to i64
  %18 = sub i64 %16, %17
  store i64 %18, ptr %9, align 8, !tbaa !7
  call void @llvm.lifetime.start.p0(i64 8, ptr %10) #14
  %19 = load ptr, ptr %6, align 8, !tbaa !3
  store ptr %19, ptr %10, align 8, !tbaa !29
  call void @llvm.lifetime.start.p0(i64 8, ptr %11) #14
  %20 = load ptr, ptr %5, align 8, !tbaa !3
  store ptr %20, ptr %11, align 8, !tbaa !29
  call void @llvm.lifetime.start.p0(i64 8, ptr %12) #14
  %21 = load ptr, ptr %11, align 8, !tbaa !29
  %22 = load i64, ptr %7, align 8, !tbaa !7
  %23 = getelementptr inbounds i8, ptr %21, i64 %22
  store ptr %23, ptr %12, align 8, !tbaa !29
  %24 = load i32, ptr %8, align 4, !tbaa !9
  %25 = icmp eq i32 %24, 1
  br i1 %25, label %26, label %45

26:                                               ; preds = %4
  %27 = load i64, ptr %9, align 8, !tbaa !7
  %28 = icmp slt i64 %27, 16
  br i1 %28, label %29, label %45

29:                                               ; preds = %26
  br label %30

30:                                               ; preds = %40, %29
  br label %31

31:                                               ; preds = %30
  %32 = load ptr, ptr %11, align 8, !tbaa !29
  %33 = load ptr, ptr %10, align 8, !tbaa !29
  call void @ZSTD_copy8(ptr noundef %32, ptr noundef %33)
  %34 = load ptr, ptr %11, align 8, !tbaa !29
  %35 = getelementptr inbounds i8, ptr %34, i64 8
  store ptr %35, ptr %11, align 8, !tbaa !29
  %36 = load ptr, ptr %10, align 8, !tbaa !29
  %37 = getelementptr inbounds i8, ptr %36, i64 8
  store ptr %37, ptr %10, align 8, !tbaa !29
  br label %38

38:                                               ; preds = %31
  br label %39

39:                                               ; preds = %38
  br label %40

40:                                               ; preds = %39
  %41 = load ptr, ptr %11, align 8, !tbaa !29
  %42 = load ptr, ptr %12, align 8, !tbaa !29
  %43 = icmp ult ptr %41, %42
  br i1 %43, label %30, label %44, !llvm.loop !105

44:                                               ; preds = %40
  br label %80

45:                                               ; preds = %26, %4
  %46 = load ptr, ptr %11, align 8, !tbaa !29
  %47 = load ptr, ptr %10, align 8, !tbaa !29
  call void @ZSTD_copy16(ptr noundef %46, ptr noundef %47)
  %48 = load i64, ptr %7, align 8, !tbaa !7
  %49 = icmp sge i64 16, %48
  br i1 %49, label %50, label %51

50:                                               ; preds = %45
  store i32 1, ptr %13, align 4
  br label %81

51:                                               ; preds = %45
  %52 = load ptr, ptr %11, align 8, !tbaa !29
  %53 = getelementptr inbounds i8, ptr %52, i64 16
  store ptr %53, ptr %11, align 8, !tbaa !29
  %54 = load ptr, ptr %10, align 8, !tbaa !29
  %55 = getelementptr inbounds i8, ptr %54, i64 16
  store ptr %55, ptr %10, align 8, !tbaa !29
  br label %56

56:                                               ; preds = %75, %51
  br label %57

57:                                               ; preds = %56
  %58 = load ptr, ptr %11, align 8, !tbaa !29
  %59 = load ptr, ptr %10, align 8, !tbaa !29
  call void @ZSTD_copy16(ptr noundef %58, ptr noundef %59)
  %60 = load ptr, ptr %11, align 8, !tbaa !29
  %61 = getelementptr inbounds i8, ptr %60, i64 16
  store ptr %61, ptr %11, align 8, !tbaa !29
  %62 = load ptr, ptr %10, align 8, !tbaa !29
  %63 = getelementptr inbounds i8, ptr %62, i64 16
  store ptr %63, ptr %10, align 8, !tbaa !29
  br label %64

64:                                               ; preds = %57
  br label %65

65:                                               ; preds = %64
  br label %66

66:                                               ; preds = %65
  %67 = load ptr, ptr %11, align 8, !tbaa !29
  %68 = load ptr, ptr %10, align 8, !tbaa !29
  call void @ZSTD_copy16(ptr noundef %67, ptr noundef %68)
  %69 = load ptr, ptr %11, align 8, !tbaa !29
  %70 = getelementptr inbounds i8, ptr %69, i64 16
  store ptr %70, ptr %11, align 8, !tbaa !29
  %71 = load ptr, ptr %10, align 8, !tbaa !29
  %72 = getelementptr inbounds i8, ptr %71, i64 16
  store ptr %72, ptr %10, align 8, !tbaa !29
  br label %73

73:                                               ; preds = %66
  br label %74

74:                                               ; preds = %73
  br label %75

75:                                               ; preds = %74
  %76 = load ptr, ptr %11, align 8, !tbaa !29
  %77 = load ptr, ptr %12, align 8, !tbaa !29
  %78 = icmp ult ptr %76, %77
  br i1 %78, label %56, label %79, !llvm.loop !106

79:                                               ; preds = %75
  br label %80

80:                                               ; preds = %79, %44
  store i32 0, ptr %13, align 4
  br label %81

81:                                               ; preds = %80, %50
  call void @llvm.lifetime.end.p0(i64 8, ptr %12) #14
  call void @llvm.lifetime.end.p0(i64 8, ptr %11) #14
  call void @llvm.lifetime.end.p0(i64 8, ptr %10) #14
  call void @llvm.lifetime.end.p0(i64 8, ptr %9) #14
  %82 = load i32, ptr %13, align 4
  switch i32 %82, label %84 [
    i32 0, label %83
    i32 1, label %83
  ]

83:                                               ; preds = %81, %81
  ret void

84:                                               ; preds = %81
  unreachable
}

; Function Attrs: alwaysinline nounwind uwtable
define internal void @ZSTD_overlapCopy8(ptr noundef %0, ptr noundef %1, i64 noundef %2) #9 {
  %4 = alloca ptr, align 8
  %5 = alloca ptr, align 8
  %6 = alloca i64, align 8
  %7 = alloca i32, align 4
  store ptr %0, ptr %4, align 8, !tbaa !103
  store ptr %1, ptr %5, align 8, !tbaa !103
  store i64 %2, ptr %6, align 8, !tbaa !7
  %8 = load i64, ptr %6, align 8, !tbaa !7
  %9 = icmp ult i64 %8, 8
  br i1 %9, label %10, label %60

10:                                               ; preds = %3
  call void @llvm.lifetime.start.p0(i64 4, ptr %7) #14
  %11 = load i64, ptr %6, align 8, !tbaa !7
  %12 = getelementptr inbounds nuw [8 x i32], ptr @ZSTD_overlapCopy8.dec64table, i64 0, i64 %11
  %13 = load i32, ptr %12, align 4, !tbaa !9
  store i32 %13, ptr %7, align 4, !tbaa !9
  %14 = load ptr, ptr %5, align 8, !tbaa !103
  %15 = load ptr, ptr %14, align 8, !tbaa !29
  %16 = getelementptr inbounds i8, ptr %15, i64 0
  %17 = load i8, ptr %16, align 1, !tbaa !15
  %18 = load ptr, ptr %4, align 8, !tbaa !103
  %19 = load ptr, ptr %18, align 8, !tbaa !29
  %20 = getelementptr inbounds i8, ptr %19, i64 0
  store i8 %17, ptr %20, align 1, !tbaa !15
  %21 = load ptr, ptr %5, align 8, !tbaa !103
  %22 = load ptr, ptr %21, align 8, !tbaa !29
  %23 = getelementptr inbounds i8, ptr %22, i64 1
  %24 = load i8, ptr %23, align 1, !tbaa !15
  %25 = load ptr, ptr %4, align 8, !tbaa !103
  %26 = load ptr, ptr %25, align 8, !tbaa !29
  %27 = getelementptr inbounds i8, ptr %26, i64 1
  store i8 %24, ptr %27, align 1, !tbaa !15
  %28 = load ptr, ptr %5, align 8, !tbaa !103
  %29 = load ptr, ptr %28, align 8, !tbaa !29
  %30 = getelementptr inbounds i8, ptr %29, i64 2
  %31 = load i8, ptr %30, align 1, !tbaa !15
  %32 = load ptr, ptr %4, align 8, !tbaa !103
  %33 = load ptr, ptr %32, align 8, !tbaa !29
  %34 = getelementptr inbounds i8, ptr %33, i64 2
  store i8 %31, ptr %34, align 1, !tbaa !15
  %35 = load ptr, ptr %5, align 8, !tbaa !103
  %36 = load ptr, ptr %35, align 8, !tbaa !29
  %37 = getelementptr inbounds i8, ptr %36, i64 3
  %38 = load i8, ptr %37, align 1, !tbaa !15
  %39 = load ptr, ptr %4, align 8, !tbaa !103
  %40 = load ptr, ptr %39, align 8, !tbaa !29
  %41 = getelementptr inbounds i8, ptr %40, i64 3
  store i8 %38, ptr %41, align 1, !tbaa !15
  %42 = load i64, ptr %6, align 8, !tbaa !7
  %43 = getelementptr inbounds nuw [8 x i32], ptr @ZSTD_overlapCopy8.dec32table, i64 0, i64 %42
  %44 = load i32, ptr %43, align 4, !tbaa !9
  %45 = load ptr, ptr %5, align 8, !tbaa !103
  %46 = load ptr, ptr %45, align 8, !tbaa !29
  %47 = zext i32 %44 to i64
  %48 = getelementptr inbounds nuw i8, ptr %46, i64 %47
  store ptr %48, ptr %45, align 8, !tbaa !29
  %49 = load ptr, ptr %4, align 8, !tbaa !103
  %50 = load ptr, ptr %49, align 8, !tbaa !29
  %51 = getelementptr inbounds i8, ptr %50, i64 4
  %52 = load ptr, ptr %5, align 8, !tbaa !103
  %53 = load ptr, ptr %52, align 8, !tbaa !29
  call void @ZSTD_copy4(ptr noundef %51, ptr noundef %53)
  %54 = load i32, ptr %7, align 4, !tbaa !9
  %55 = load ptr, ptr %5, align 8, !tbaa !103
  %56 = load ptr, ptr %55, align 8, !tbaa !29
  %57 = sext i32 %54 to i64
  %58 = sub i64 0, %57
  %59 = getelementptr inbounds i8, ptr %56, i64 %58
  store ptr %59, ptr %55, align 8, !tbaa !29
  call void @llvm.lifetime.end.p0(i64 4, ptr %7) #14
  br label %65

60:                                               ; preds = %3
  %61 = load ptr, ptr %4, align 8, !tbaa !103
  %62 = load ptr, ptr %61, align 8, !tbaa !29
  %63 = load ptr, ptr %5, align 8, !tbaa !103
  %64 = load ptr, ptr %63, align 8, !tbaa !29
  call void @ZSTD_copy8(ptr noundef %62, ptr noundef %64)
  br label %65

65:                                               ; preds = %60, %10
  %66 = load ptr, ptr %5, align 8, !tbaa !103
  %67 = load ptr, ptr %66, align 8, !tbaa !29
  %68 = getelementptr inbounds i8, ptr %67, i64 8
  store ptr %68, ptr %66, align 8, !tbaa !29
  %69 = load ptr, ptr %4, align 8, !tbaa !103
  %70 = load ptr, ptr %69, align 8, !tbaa !29
  %71 = getelementptr inbounds i8, ptr %70, i64 8
  store ptr %71, ptr %69, align 8, !tbaa !29
  ret void
}

; Function Attrs: nounwind uwtable
define internal void @ZSTD_safecopy(ptr noundef %0, ptr noundef %1, ptr noundef %2, i64 noundef %3, i32 noundef %4) #0 {
  %6 = alloca ptr, align 8
  %7 = alloca ptr, align 8
  %8 = alloca ptr, align 8
  %9 = alloca i64, align 8
  %10 = alloca i32, align 4
  %11 = alloca i64, align 8
  %12 = alloca ptr, align 8
  %13 = alloca i32, align 4
  store ptr %0, ptr %6, align 8, !tbaa !29
  store ptr %1, ptr %7, align 8, !tbaa !29
  store ptr %2, ptr %8, align 8, !tbaa !29
  store i64 %3, ptr %9, align 8, !tbaa !7
  store i32 %4, ptr %10, align 4, !tbaa !9
  call void @llvm.lifetime.start.p0(i64 8, ptr %11) #14
  %14 = load ptr, ptr %6, align 8, !tbaa !29
  %15 = load ptr, ptr %8, align 8, !tbaa !29
  %16 = ptrtoint ptr %14 to i64
  %17 = ptrtoint ptr %15 to i64
  %18 = sub i64 %16, %17
  store i64 %18, ptr %11, align 8, !tbaa !7
  call void @llvm.lifetime.start.p0(i64 8, ptr %12) #14
  %19 = load ptr, ptr %6, align 8, !tbaa !29
  %20 = load i64, ptr %9, align 8, !tbaa !7
  %21 = getelementptr inbounds i8, ptr %19, i64 %20
  store ptr %21, ptr %12, align 8, !tbaa !29
  %22 = load i64, ptr %9, align 8, !tbaa !7
  %23 = icmp slt i64 %22, 8
  br i1 %23, label %24, label %36

24:                                               ; preds = %5
  br label %25

25:                                               ; preds = %29, %24
  %26 = load ptr, ptr %6, align 8, !tbaa !29
  %27 = load ptr, ptr %12, align 8, !tbaa !29
  %28 = icmp ult ptr %26, %27
  br i1 %28, label %29, label %35

29:                                               ; preds = %25
  %30 = load ptr, ptr %8, align 8, !tbaa !29
  %31 = getelementptr inbounds nuw i8, ptr %30, i32 1
  store ptr %31, ptr %8, align 8, !tbaa !29
  %32 = load i8, ptr %30, align 1, !tbaa !15
  %33 = load ptr, ptr %6, align 8, !tbaa !29
  %34 = getelementptr inbounds nuw i8, ptr %33, i32 1
  store ptr %34, ptr %6, align 8, !tbaa !29
  store i8 %32, ptr %33, align 1, !tbaa !15
  br label %25, !llvm.loop !107

35:                                               ; preds = %25
  store i32 1, ptr %13, align 4
  br label %91

36:                                               ; preds = %5
  %37 = load i32, ptr %10, align 4, !tbaa !9
  %38 = icmp eq i32 %37, 1
  br i1 %38, label %39, label %43

39:                                               ; preds = %36
  %40 = load i64, ptr %11, align 8, !tbaa !7
  call void @ZSTD_overlapCopy8(ptr noundef %6, ptr noundef %8, i64 noundef %40)
  %41 = load i64, ptr %9, align 8, !tbaa !7
  %42 = sub nsw i64 %41, 8
  store i64 %42, ptr %9, align 8, !tbaa !7
  br label %43

43:                                               ; preds = %39, %36
  %44 = load ptr, ptr %12, align 8, !tbaa !29
  %45 = load ptr, ptr %7, align 8, !tbaa !29
  %46 = icmp ule ptr %44, %45
  br i1 %46, label %47, label %52

47:                                               ; preds = %43
  %48 = load ptr, ptr %6, align 8, !tbaa !29
  %49 = load ptr, ptr %8, align 8, !tbaa !29
  %50 = load i64, ptr %9, align 8, !tbaa !7
  %51 = load i32, ptr %10, align 4, !tbaa !9
  call void @ZSTD_wildcopy(ptr noundef %48, ptr noundef %49, i64 noundef %50, i32 noundef %51)
  store i32 1, ptr %13, align 4
  br label %91

52:                                               ; preds = %43
  %53 = load ptr, ptr %6, align 8, !tbaa !29
  %54 = load ptr, ptr %7, align 8, !tbaa !29
  %55 = icmp ule ptr %53, %54
  br i1 %55, label %56, label %79

56:                                               ; preds = %52
  %57 = load ptr, ptr %6, align 8, !tbaa !29
  %58 = load ptr, ptr %8, align 8, !tbaa !29
  %59 = load ptr, ptr %7, align 8, !tbaa !29
  %60 = load ptr, ptr %6, align 8, !tbaa !29
  %61 = ptrtoint ptr %59 to i64
  %62 = ptrtoint ptr %60 to i64
  %63 = sub i64 %61, %62
  %64 = load i32, ptr %10, align 4, !tbaa !9
  call void @ZSTD_wildcopy(ptr noundef %57, ptr noundef %58, i64 noundef %63, i32 noundef %64)
  %65 = load ptr, ptr %7, align 8, !tbaa !29
  %66 = load ptr, ptr %6, align 8, !tbaa !29
  %67 = ptrtoint ptr %65 to i64
  %68 = ptrtoint ptr %66 to i64
  %69 = sub i64 %67, %68
  %70 = load ptr, ptr %8, align 8, !tbaa !29
  %71 = getelementptr inbounds i8, ptr %70, i64 %69
  store ptr %71, ptr %8, align 8, !tbaa !29
  %72 = load ptr, ptr %7, align 8, !tbaa !29
  %73 = load ptr, ptr %6, align 8, !tbaa !29
  %74 = ptrtoint ptr %72 to i64
  %75 = ptrtoint ptr %73 to i64
  %76 = sub i64 %74, %75
  %77 = load ptr, ptr %6, align 8, !tbaa !29
  %78 = getelementptr inbounds i8, ptr %77, i64 %76
  store ptr %78, ptr %6, align 8, !tbaa !29
  br label %79

79:                                               ; preds = %56, %52
  br label %80

80:                                               ; preds = %84, %79
  %81 = load ptr, ptr %6, align 8, !tbaa !29
  %82 = load ptr, ptr %12, align 8, !tbaa !29
  %83 = icmp ult ptr %81, %82
  br i1 %83, label %84, label %90

84:                                               ; preds = %80
  %85 = load ptr, ptr %8, align 8, !tbaa !29
  %86 = getelementptr inbounds nuw i8, ptr %85, i32 1
  store ptr %86, ptr %8, align 8, !tbaa !29
  %87 = load i8, ptr %85, align 1, !tbaa !15
  %88 = load ptr, ptr %6, align 8, !tbaa !29
  %89 = getelementptr inbounds nuw i8, ptr %88, i32 1
  store ptr %89, ptr %6, align 8, !tbaa !29
  store i8 %87, ptr %88, align 1, !tbaa !15
  br label %80, !llvm.loop !108

90:                                               ; preds = %80
  store i32 0, ptr %13, align 4
  br label %91

91:                                               ; preds = %90, %47, %35
  call void @llvm.lifetime.end.p0(i64 8, ptr %12) #14
  call void @llvm.lifetime.end.p0(i64 8, ptr %11) #14
  %92 = load i32, ptr %13, align 4
  switch i32 %92, label %94 [
    i32 0, label %93
    i32 1, label %93
  ]

93:                                               ; preds = %91, %91
  ret void

94:                                               ; preds = %91
  unreachable
}