; Function Attrs: nofree norecurse nosync nounwind memory(argmem: readwrite) uwtable
define internal fastcc void @ZSTD_safecopy(ptr noundef %0, ptr noundef %1, ptr noundef %2, i64 noundef %3, i32 noundef range(i32 0, 2) %4) unnamed_addr #15 {
  %6 = ptrtoint ptr %0 to i64
  %7 = ptrtoint ptr %2 to i64
  %8 = sub i64 %6, %7
  %9 = getelementptr inbounds i8, ptr %0, i64 %3
  %10 = icmp slt i64 %3, 8
  br i1 %10, label %.preheader, label %16

.preheader:                                       ; preds = %5
  %11 = icmp sgt i64 %3, 0
  br i1 %11, label %.lr.ph69, label %ZSTD_wildcopy.exit27

.lr.ph69:                                         ; preds = %.preheader, %.lr.ph69
  %.05468 = phi ptr [ %12, %.lr.ph69 ], [ %2, %.preheader ]
  %.05567 = phi ptr [ %14, %.lr.ph69 ], [ %0, %.preheader ]
  %12 = getelementptr inbounds nuw i8, ptr %.05468, i64 1
  %13 = load i8, ptr %.05468, align 1, !tbaa !7
  %14 = getelementptr inbounds nuw i8, ptr %.05567, i64 1
  store i8 %13, ptr %.05567, align 1, !tbaa !7
  %15 = icmp ult ptr %14, %9
  br i1 %15, label %.lr.ph69, label %ZSTD_wildcopy.exit27, !llvm.loop !141

16:                                               ; preds = %5
  %.not = icmp eq i32 %4, 0
  br i1 %.not, label %46, label %17

17:                                               ; preds = %16
  %18 = icmp ult i64 %8, 8
  br i1 %18, label %19, label %41

19:                                               ; preds = %17
  %20 = getelementptr inbounds nuw [8 x i32], ptr @ZSTD_overlapCopy8.dec64table, i64 0, i64 %8
  %21 = load i32, ptr %20, align 4, !tbaa !28
  %22 = load i8, ptr %2, align 1, !tbaa !7
  store i8 %22, ptr %0, align 1, !tbaa !7
  %23 = getelementptr inbounds nuw i8, ptr %2, i64 1
  %24 = load i8, ptr %23, align 1, !tbaa !7
  %25 = getelementptr inbounds nuw i8, ptr %0, i64 1
  store i8 %24, ptr %25, align 1, !tbaa !7
  %26 = getelementptr inbounds nuw i8, ptr %2, i64 2
  %27 = load i8, ptr %26, align 1, !tbaa !7
  %28 = getelementptr inbounds nuw i8, ptr %0, i64 2
  store i8 %27, ptr %28, align 1, !tbaa !7
  %29 = getelementptr inbounds nuw i8, ptr %2, i64 3
  %30 = load i8, ptr %29, align 1, !tbaa !7
  %31 = getelementptr inbounds nuw i8, ptr %0, i64 3
  store i8 %30, ptr %31, align 1, !tbaa !7
  %32 = getelementptr inbounds nuw [8 x i32], ptr @ZSTD_overlapCopy8.dec32table, i64 0, i64 %8
  %33 = load i32, ptr %32, align 4, !tbaa !28
  %34 = zext i32 %33 to i64
  %35 = getelementptr inbounds nuw i8, ptr %2, i64 %34
  %36 = getelementptr inbounds nuw i8, ptr %0, i64 4
  %37 = load i32, ptr %35, align 1
  store i32 %37, ptr %36, align 1
  %38 = sext i32 %21 to i64
  %39 = sub nsw i64 0, %38
  %40 = getelementptr inbounds i8, ptr %35, i64 %39
  br label %ZSTD_overlapCopy8.exit

41:                                               ; preds = %17
  %42 = load i64, ptr %2, align 1
  store i64 %42, ptr %0, align 1
  br label %ZSTD_overlapCopy8.exit

ZSTD_overlapCopy8.exit:                           ; preds = %19, %41
  %.4 = phi ptr [ %40, %19 ], [ %2, %41 ]
  %43 = getelementptr inbounds nuw i8, ptr %.4, i64 8
  %44 = getelementptr inbounds nuw i8, ptr %0, i64 8
  %45 = add nsw i64 %3, -8
  br label %46

46:                                               ; preds = %ZSTD_overlapCopy8.exit, %16
  %.156 = phi ptr [ %0, %16 ], [ %44, %ZSTD_overlapCopy8.exit ]
  %.1 = phi ptr [ %2, %16 ], [ %43, %ZSTD_overlapCopy8.exit ]
  %.0 = phi i64 [ %3, %16 ], [ %45, %ZSTD_overlapCopy8.exit ]
  %.not19 = icmp ugt ptr %9, %1
  br i1 %.not19, label %70, label %47

47:                                               ; preds = %46
  %48 = ptrtoint ptr %.156 to i64
  %49 = ptrtoint ptr %.1 to i64
  %50 = sub i64 %48, %49
  %51 = getelementptr inbounds i8, ptr %.156, i64 %.0
  %52 = icmp ne i32 %4, 0
  %53 = icmp slt i64 %50, 16
  %or.cond.i21 = and i1 %52, %53
  br i1 %or.cond.i21, label %.preheader62, label %58

.preheader62:                                     ; preds = %47, %.preheader62
  %.029.i25 = phi ptr [ %55, %.preheader62 ], [ %.156, %47 ]
  %.0.i26 = phi ptr [ %56, %.preheader62 ], [ %.1, %47 ]
  %54 = load i64, ptr %.0.i26, align 1
  store i64 %54, ptr %.029.i25, align 1
  %55 = getelementptr inbounds nuw i8, ptr %.029.i25, i64 8
  %56 = getelementptr inbounds nuw i8, ptr %.0.i26, i64 8
  %57 = icmp ult ptr %55, %51
  br i1 %57, label %.preheader62, label %ZSTD_wildcopy.exit27, !llvm.loop !101

58:                                               ; preds = %47
  %59 = load <2 x i64>, ptr %.1, align 1, !tbaa !7
  store <2 x i64> %59, ptr %.156, align 1, !tbaa !7
  %60 = icmp samesign ult i64 %.0, 17
  br i1 %60, label %ZSTD_wildcopy.exit27, label %61

61:                                               ; preds = %58
  %62 = getelementptr inbounds nuw i8, ptr %.156, i64 16
  br label %63

63:                                               ; preds = %63, %61
  %.130.i22 = phi ptr [ %62, %61 ], [ %68, %63 ]
  %.pn.i23 = phi ptr [ %.1, %61 ], [ %66, %63 ]
  %.1.i24 = getelementptr inbounds nuw i8, ptr %.pn.i23, i64 16
  %64 = load <2 x i64>, ptr %.1.i24, align 1, !tbaa !7
  store <2 x i64> %64, ptr %.130.i22, align 1, !tbaa !7
  %65 = getelementptr inbounds nuw i8, ptr %.130.i22, i64 16
  %66 = getelementptr inbounds nuw i8, ptr %.pn.i23, i64 32
  %67 = load <2 x i64>, ptr %66, align 1, !tbaa !7
  store <2 x i64> %67, ptr %65, align 1, !tbaa !7
  %68 = getelementptr inbounds nuw i8, ptr %.130.i22, i64 32
  %69 = icmp ult ptr %68, %51
  br i1 %69, label %63, label %ZSTD_wildcopy.exit27, !llvm.loop !98

70:                                               ; preds = %46
  %.not20 = icmp ugt ptr %.156, %1
  br i1 %.not20, label %97, label %71

71:                                               ; preds = %70
  %72 = ptrtoint ptr %1 to i64
  %73 = ptrtoint ptr %.156 to i64
  %74 = sub i64 %72, %73
  %75 = ptrtoint ptr %.1 to i64
  %76 = sub i64 %73, %75
  %77 = getelementptr inbounds i8, ptr %.156, i64 %74
  %78 = icmp ne i32 %4, 0
  %79 = icmp slt i64 %76, 16
  %or.cond.i = and i1 %78, %79
  br i1 %or.cond.i, label %.preheader60, label %84

.preheader60:                                     ; preds = %71, %.preheader60
  %.029.i = phi ptr [ %81, %.preheader60 ], [ %.156, %71 ]
  %.0.i = phi ptr [ %82, %.preheader60 ], [ %.1, %71 ]
  %80 = load i64, ptr %.0.i, align 1
  store i64 %80, ptr %.029.i, align 1
  %81 = getelementptr inbounds nuw i8, ptr %.029.i, i64 8
  %82 = getelementptr inbounds nuw i8, ptr %.0.i, i64 8
  %83 = icmp ult ptr %81, %1
  br i1 %83, label %.preheader60, label %ZSTD_wildcopy.exit, !llvm.loop !101

84:                                               ; preds = %71
  %85 = load <2 x i64>, ptr %.1, align 1, !tbaa !7
  store <2 x i64> %85, ptr %.156, align 1, !tbaa !7
  %86 = icmp slt i64 %74, 17
  br i1 %86, label %ZSTD_wildcopy.exit, label %87

87:                                               ; preds = %84
  %88 = getelementptr inbounds nuw i8, ptr %.156, i64 16
  br label %89

89:                                               ; preds = %89, %87
  %.130.i = phi ptr [ %88, %87 ], [ %94, %89 ]
  %.pn.i = phi ptr [ %.1, %87 ], [ %92, %89 ]
  %.1.i = getelementptr inbounds nuw i8, ptr %.pn.i, i64 16
  %90 = load <2 x i64>, ptr %.1.i, align 1, !tbaa !7
  store <2 x i64> %90, ptr %.130.i, align 1, !tbaa !7
  %91 = getelementptr inbounds nuw i8, ptr %.130.i, i64 16
  %92 = getelementptr inbounds nuw i8, ptr %.pn.i, i64 32
  %93 = load <2 x i64>, ptr %92, align 1, !tbaa !7
  store <2 x i64> %93, ptr %91, align 1, !tbaa !7
  %94 = getelementptr inbounds nuw i8, ptr %.130.i, i64 32
  %95 = icmp ult ptr %94, %1
  br i1 %95, label %89, label %ZSTD_wildcopy.exit, !llvm.loop !98

ZSTD_wildcopy.exit:                               ; preds = %89, %.preheader60, %84
  %96 = getelementptr inbounds i8, ptr %.1, i64 %74
  br label %97

97:                                               ; preds = %ZSTD_wildcopy.exit, %70
  %.257 = phi ptr [ %.156, %70 ], [ %77, %ZSTD_wildcopy.exit ]
  %.2 = phi ptr [ %.1, %70 ], [ %96, %ZSTD_wildcopy.exit ]
  %98 = icmp ult ptr %.257, %9
  br i1 %98, label %.lr.ph, label %ZSTD_wildcopy.exit27

.lr.ph:                                           ; preds = %97, %.lr.ph
  %.366 = phi ptr [ %99, %.lr.ph ], [ %.2, %97 ]
  %.35865 = phi ptr [ %101, %.lr.ph ], [ %.257, %97 ]
  %99 = getelementptr inbounds nuw i8, ptr %.366, i64 1
  %100 = load i8, ptr %.366, align 1, !tbaa !7
  %101 = getelementptr inbounds nuw i8, ptr %.35865, i64 1
  store i8 %100, ptr %.35865, align 1, !tbaa !7
  %102 = icmp ult ptr %101, %9
  br i1 %102, label %.lr.ph, label %ZSTD_wildcopy.exit27, !llvm.loop !142

ZSTD_wildcopy.exit27:                             ; preds = %63, %.preheader62, %.lr.ph, %.lr.ph69, %97, %.preheader, %58
  ret void
}